target datalayout = "e-m:e-p270:32:32-p271:32:32-p272:64:64-i64:64-i128:128-f80:128-n8:16:32:64-S128"
target triple = "x86_64-pc-linux-gnu"

; Function Attrs: nounwind uwtable
define ptr @CMS_data_create_ex(ptr noundef %0, i32 noundef %1, ptr noundef %2, ptr noundef %3) #0 {
  %5 = alloca ptr, align 8
  %6 = alloca ptr, align 8
  %7 = alloca i32, align 4
  %8 = alloca ptr, align 8
  %9 = alloca ptr, align 8
  %10 = alloca ptr, align 8
  %11 = alloca i32, align 4
  store ptr %0, ptr %6, align 8, !tbaa !8
  store i32 %1, ptr %7, align 4, !tbaa !10
  store ptr %2, ptr %8, align 8, !tbaa !12
  store ptr %3, ptr %9, align 8, !tbaa !14
  call void @llvm.lifetime.start.p0(i64 8, ptr %10) #4
  %12 = load ptr, ptr %8, align 8, !tbaa !12
  %13 = load ptr, ptr %9, align 8, !tbaa !14
  %14 = call ptr @ossl_cms_Data_create(ptr noundef %12, ptr noundef %13)
  store ptr %14, ptr %10, align 8, !tbaa !3
  %15 = load ptr, ptr %10, align 8, !tbaa !3
  %16 = icmp eq ptr %15, null
  br i1 %16, label %17, label %18

17:                                               ; preds = %4
  store ptr null, ptr %5, align 8
  store i32 1, ptr %11, align 4
  br label %32

18:                                               ; preds = %4
  %19 = load i32, ptr %7, align 4, !tbaa !10
  %20 = and i32 %19, 4096
  %21 = icmp ne i32 %20, 0
  br i1 %21, label %28, label %22

22:                                               ; preds = %18
  %23 = load ptr, ptr %10, align 8, !tbaa !3
  %24 = load ptr, ptr %6, align 8, !tbaa !8
  %25 = load i32, ptr %7, align 4, !tbaa !10
  %26 = call i32 @CMS_final(ptr noundef %23, ptr noundef %24, ptr noundef null, i32 noundef %25)
  %27 = icmp ne i32 %26, 0
  br i1 %27, label %28, label %30

28:                                               ; preds = %22, %18
  %29 = load ptr, ptr %10, align 8, !tbaa !3
  store ptr %29, ptr %5, align 8
  store i32 1, ptr %11, align 4
  br label %32

30:                                               ; preds = %22
  %31 = load ptr, ptr %10, align 8, !tbaa !3
  call void @CMS_ContentInfo_free(ptr noundef %31)
  store ptr null, ptr %5, align 8
  store i32 1, ptr %11, align 4
  br label %32

32:                                               ; preds = %30, %28, %17
  call void @llvm.lifetime.end.p0(i64 8, ptr %10) #4
  %33 = load ptr, ptr %5, align 8
  ret ptr %33
}