; Function Attrs: nounwind uwtable
define ptr @CMS_data_create_ex(ptr noundef %0, i32 noundef %1, ptr noundef %2, ptr noundef %3) local_unnamed_addr #0 {
  %5 = tail call ptr @ossl_cms_Data_create(ptr noundef %2, ptr noundef %3) #4
  %6 = icmp eq ptr %5, null
  br i1 %6, label %12, label %7

7:                                                ; preds = %4
  %8 = and i32 %1, 4096
  %.not = icmp eq i32 %8, 0
  br i1 %.not, label %9, label %12

9:                                                ; preds = %7
  %10 = tail call i32 @CMS_final(ptr noundef nonnull %5, ptr noundef %0, ptr noundef null, i32 noundef %1)
  %.not10 = icmp eq i32 %10, 0
  br i1 %.not10, label %11, label %12

11:                                               ; preds = %9
  tail call void @CMS_ContentInfo_free(ptr noundef nonnull %5) #4
  br label %12

12:                                               ; preds = %7, %9, %4, %11
  %.0 = phi ptr [ null, %11 ], [ null, %4 ], [ %5, %9 ], [ %5, %7 ]
  ret ptr %.0
}